target datalayout = "e-m:e-p270:32:32-p271:32:32-p272:64:64-i64:64-i128:128-f80:128-n8:16:32:64-S128"
target triple = "x86_64-pc-linux-gnu"

%struct.H5G_name_t = type { ptr, ptr, i32 }

@.str.1 = private unnamed_addr constant [101 x i8] c"generated/home/dtcxzyw/WorkSpace/Projects/compilers/llvm-opt-benchmark/bench/hdf5/hdf5/src/H5Gname.c\00", align 1
@__func__.H5G_name_set = private unnamed_addr constant [13 x i8] c"H5G_name_set\00", align 1
@H5E_SYM_g = external global i64, align 8
@H5E_PATH_g = external global i64, align 8
@.str.3 = private unnamed_addr constant [27 x i8] c"can't build user path name\00", align 1
@__func__.H5G__build_fullpath = private unnamed_addr constant [20 x i8] c"H5G__build_fullpath\00", align 1
@H5E_CANTCREATE_g = external global i64, align 8
@.str.16 = private unnamed_addr constant [32 x i8] c"can't create ref-counted string\00", align 1

; Function Attrs: nounwind uwtable
define internal ptr @H5G__build_fullpath(ptr noundef %0, ptr noundef %1) #0 {
  %3 = alloca ptr, align 8
  %4 = alloca ptr, align 8
  %5 = alloca ptr, align 8
  %6 = alloca i8, align 1
  store ptr %0, ptr %3, align 8
  store ptr %1, ptr %4, align 8
  store ptr null, ptr %5, align 8
  store i8 0, ptr %6, align 1
  %7 = load ptr, ptr %3, align 8
  %8 = call ptr @H5RS_create(ptr noundef %7)
  store ptr %8, ptr %5, align 8
  %9 = icmp eq ptr null, %8
  br i1 %9, label %10, label %25

10:                                               ; preds = %2
  br label %11

11:                                               ; preds = %10
  br label %12

12:                                               ; preds = %11
  br label %13

13:                                               ; preds = %12
  %14 = load i64, ptr @H5E_SYM_g, align 8
  %15 = load i64, ptr @H5E_CANTCREATE_g, align 8
  %16 = call i32 (ptr, ptr, i32, i64, i64, ptr, ...) @H5E_printf_stack(ptr noundef @.str.1, ptr noundef @__func__.H5G__build_fullpath, i32 noundef 267, i64 noundef %14, i64 noundef %15, ptr noundef @.str.16)
  br label %17

17:                                               ; preds = %13
  store i8 1, ptr %6, align 1
  %18 = load i8, ptr %6, align 1
  %19 = trunc i8 %18 to i1
  %20 = zext i1 %19 to i8
  store i8 %20, ptr %6, align 1
  br label %21

21:                                               ; preds = %17
  br label %22

22:                                               ; preds = %21
  store ptr null, ptr %5, align 8
  br label %41

23:                                               ; No predecessors!
  br label %24

24:                                               ; preds = %23
  br label %25

25:                                               ; preds = %24, %2
  %26 = load ptr, ptr %3, align 8
  %27 = load ptr, ptr %3, align 8
  %28 = call i64 @strlen(ptr noundef %27) #6
  %29 = sub i64 %28, 1
  %30 = getelementptr inbounds i8, ptr %26, i64 %29
  %31 = load i8, ptr %30, align 1
  %32 = sext i8 %31 to i32
  %33 = icmp ne i32 %32, 47
  br i1 %33, label %34, label %37

34:                                               ; preds = %25
  %35 = load ptr, ptr %5, align 8
  %36 = call i32 @H5RS_aputc(ptr noundef %35, i32 noundef 47)
  br label %37

37:                                               ; preds = %34, %25
  %38 = load ptr, ptr %5, align 8
  %39 = load ptr, ptr %4, align 8
  %40 = call i32 @H5RS_acat(ptr noundef %38, ptr noundef %39)
  br label %41

41:                                               ; preds = %37, %22
  %42 = load ptr, ptr %5, align 8
  ret ptr %42
}

; Function Attrs: nounwind uwtable
define ptr @H5G_build_fullpath_refstr_str(ptr noundef %0, ptr noundef %1) #0 {
  %3 = alloca ptr, align 8
  %4 = alloca ptr, align 8
  %5 = alloca ptr, align 8
  %6 = alloca ptr, align 8
  store ptr %0, ptr %3, align 8
  store ptr %1, ptr %4, align 8
  store ptr null, ptr %6, align 8
  %7 = load ptr, ptr %3, align 8
  %8 = call ptr @H5RS_get_str(ptr noundef %7)
  store ptr %8, ptr %5, align 8
  %9 = load ptr, ptr %5, align 8
  %10 = load ptr, ptr %4, align 8
  %11 = call ptr @H5G__build_fullpath(ptr noundef %9, ptr noundef %10)
  store ptr %11, ptr %6, align 8
  %12 = load ptr, ptr %6, align 8
  ret ptr %12
}

; Function Attrs: nounwind uwtable
define i32 @H5G_name_free(ptr noundef %0) #0 {
  %2 = alloca ptr, align 8
  store ptr %0, ptr %2, align 8
  %3 = load ptr, ptr %2, align 8
  %4 = getelementptr inbounds %struct.H5G_name_t, ptr %3, i32 0, i32 0
  %5 = load ptr, ptr %4, align 8
  %6 = icmp ne ptr %5, null
  br i1 %6, label %7, label %14

7:                                                ; preds = %1
  %8 = load ptr, ptr %2, align 8
  %9 = getelementptr inbounds %struct.H5G_name_t, ptr %8, i32 0, i32 0
  %10 = load ptr, ptr %9, align 8
  %11 = call i32 @H5RS_decr(ptr noundef %10)
  %12 = load ptr, ptr %2, align 8
  %13 = getelementptr inbounds %struct.H5G_name_t, ptr %12, i32 0, i32 0
  store ptr null, ptr %13, align 8
  br label %14

14:                                               ; preds = %7, %1
  %15 = load ptr, ptr %2, align 8
  %16 = getelementptr inbounds %struct.H5G_name_t, ptr %15, i32 0, i32 1
  %17 = load ptr, ptr %16, align 8
  %18 = icmp ne ptr %17, null
  br i1 %18, label %19, label %26

19:                                               ; preds = %14
  %20 = load ptr, ptr %2, align 8
  %21 = getelementptr inbounds %struct.H5G_name_t, ptr %20, i32 0, i32 1
  %22 = load ptr, ptr %21, align 8
  %23 = call i32 @H5RS_decr(ptr noundef %22)
  %24 = load ptr, ptr %2, align 8
  %25 = getelementptr inbounds %struct.H5G_name_t, ptr %24, i32 0, i32 1
  store ptr null, ptr %25, align 8
  br label %26

26:                                               ; preds = %19, %14
  %27 = load ptr, ptr %2, align 8
  %28 = getelementptr inbounds %struct.H5G_name_t, ptr %27, i32 0, i32 2
  store i32 0, ptr %28, align 8
  ret i32 0
}

; Function Attrs: nounwind uwtable
define i32 @H5G_name_set(ptr noundef %0, ptr noundef %1, ptr noundef %2) #0 {
  %4 = alloca ptr, align 8
  %5 = alloca ptr, align 8
  %6 = alloca ptr, align 8
  %7 = alloca i32, align 4
  %8 = alloca i8, align 1
  store ptr %0, ptr %4, align 8
  store ptr %1, ptr %5, align 8
  store ptr %2, ptr %6, align 8
  store i32 0, ptr %7, align 4
  store i8 0, ptr %8, align 1
  %9 = load ptr, ptr %5, align 8
  %10 = call i32 @H5G_name_free(ptr noundef %9)
  %11 = load ptr, ptr %4, align 8
  %12 = getelementptr inbounds %struct.H5G_name_t, ptr %11, i32 0, i32 0
  %13 = load ptr, ptr %12, align 8
  %14 = icmp ne ptr %13, null
  br i1 %14, label %15, label %40

15:                                               ; preds = %3
  %16 = load ptr, ptr %4, align 8
  %17 = getelementptr inbounds %struct.H5G_name_t, ptr %16, i32 0, i32 0
  %18 = load ptr, ptr %17, align 8
  %19 = load ptr, ptr %6, align 8
  %20 = call ptr @H5G_build_fullpath_refstr_str(ptr noundef %18, ptr noundef %19)
  %21 = load ptr, ptr %5, align 8
  %22 = getelementptr inbounds %struct.H5G_name_t, ptr %21, i32 0, i32 0
  store ptr %20, ptr %22, align 8
  %23 = icmp eq ptr %20, null
  br i1 %23, label %24, label %39

24:                                               ; preds = %15
  br label %25

25:                                               ; preds = %24
  br label %26

26:                                               ; preds = %25
  br label %27

27:                                               ; preds = %26
  %28 = load i64, ptr @H5E_SYM_g, align 8
  %29 = load i64, ptr @H5E_PATH_g, align 8
  %30 = call i32 (ptr, ptr, i32, i64, i64, ptr, ...) @H5E_printf_stack(ptr noundef @.str.1, ptr noundef @__func__.H5G_name_set, i32 noundef 363, i64 noundef %28, i64 noundef %29, ptr noundef @.str.3)
  br label %31

31:                                               ; preds = %27
  store i8 1, ptr %8, align 1
  %32 = load i8, ptr %8, align 1
  %33 = trunc i8 %32 to i1
  %34 = zext i1 %33 to i8
  store i8 %34, ptr %8, align 1
  br label %35

35:                                               ; preds = %31
  br label %36

36:                                               ; preds = %35
  store i32 -1, ptr %7, align 4
  br label %71

37:                                               ; No predecessors!
  br label %38

38:                                               ; preds = %37
  br label %39

39:                                               ; preds = %38, %15
  br label %40

40:                                               ; preds = %39, %3
  %41 = load ptr, ptr %4, align 8
  %42 = getelementptr inbounds %struct.H5G_name_t, ptr %41, i32 0, i32 1
  %43 = load ptr, ptr %42, align 8
  %44 = icmp ne ptr %43, null
  br i1 %44, label %45, label %70

45:                                               ; preds = %40
  %46 = load ptr, ptr %4, align 8
  %47 = getelementptr inbounds %struct.H5G_name_t, ptr %46, i32 0, i32 1
  %48 = load ptr, ptr %47, align 8
  %49 = load ptr, ptr %6, align 8
  %50 = call ptr @H5G_build_fullpath_refstr_str(ptr noundef %48, ptr noundef %49)
  %51 = load ptr, ptr %5, align 8
  %52 = getelementptr inbounds %struct.H5G_name_t, ptr %51, i32 0, i32 1
  store ptr %50, ptr %52, align 8
  %53 = icmp eq ptr %50, null
  br i1 %53, label %54, label %69

54:                                               ; preds = %45
  br label %55

55:                                               ; preds = %54
  br label %56

56:                                               ; preds = %55
  br label %57

57:                                               ; preds = %56
  %58 = load i64, ptr @H5E_SYM_g, align 8
  %59 = load i64, ptr @H5E_PATH_g, align 8
  %60 = call i32 (ptr, ptr, i32, i64, i64, ptr, ...) @H5E_printf_stack(ptr noundef @.str.1, ptr noundef @__func__.H5G_name_set, i32 noundef 370, i64 noundef %58, i64 noundef %59, ptr noundef @.str.3)
  br label %61

61:                                               ; preds = %57
  store i8 1, ptr %8, align 1
  %62 = load i8, ptr %8, align 1
  %63 = trunc i8 %62 to i1
  %64 = zext i1 %63 to i8
  store i8 %64, ptr %8, align 1
  br label %65

65:                                               ; preds = %61
  br label %66

66:                                               ; preds = %65
  store i32 -1, ptr %7, align 4
  br label %71

67:                                               ; No predecessors!
  br label %68

68:                                               ; preds = %67
  br label %69

69:                                               ; preds = %68, %45
  br label %70

70:                                               ; preds = %69, %40
  br label %71

71:                                               ; preds = %70, %66, %36
  %72 = load i32, ptr %7, align 4
  ret i32 %72
}