; Function Attrs: nounwind uwtable
define range(i32 -1, 1) i32 @H5G_name_set(ptr nocapture noundef readonly %0, ptr nocapture noundef %1, ptr noundef %2) local_unnamed_addr #2 {
  %4 = load ptr, ptr %1, align 8
  %.not.i = icmp eq ptr %4, null
  br i1 %.not.i, label %7, label %5

5:                                                ; preds = %3
  %6 = tail call i32 @H5RS_decr(ptr noundef nonnull %4) #10
  store ptr null, ptr %1, align 8
  br label %7

7:                                                ; preds = %5, %3
  %8 = getelementptr inbounds i8, ptr %1, i64 8
  %9 = load ptr, ptr %8, align 8
  %.not8.i = icmp eq ptr %9, null
  br i1 %.not8.i, label %H5G_name_free.exit, label %10

10:                                               ; preds = %7
  %11 = tail call i32 @H5RS_decr(ptr noundef nonnull %9) #10
  store ptr null, ptr %8, align 8
  br label %H5G_name_free.exit

H5G_name_free.exit:                               ; preds = %7, %10
  %12 = getelementptr inbounds i8, ptr %1, i64 16
  store i32 0, ptr %12, align 8
  %13 = load ptr, ptr %0, align 8
  %.not = icmp eq ptr %13, null
  br i1 %.not, label %33, label %14

14:                                               ; preds = %H5G_name_free.exit
  %15 = tail call ptr @H5RS_get_str(ptr noundef nonnull %13) #10
  %16 = tail call ptr @H5RS_create(ptr noundef %15) #10
  %17 = icmp eq ptr %16, null
  br i1 %17, label %26, label %18

18:                                               ; preds = %14
  %19 = tail call i64 @strlen(ptr noundef nonnull dereferenceable(1) %15) #9
  %20 = getelementptr i8, ptr %15, i64 %19
  %21 = getelementptr i8, ptr %20, i64 -1
  %22 = load i8, ptr %21, align 1
  %.not.i.i = icmp eq i8 %22, 47
  br i1 %.not.i.i, label %H5G_build_fullpath_refstr_str.exit, label %23

23:                                               ; preds = %18
  %24 = tail call i32 @H5RS_aputc(ptr noundef nonnull %16, i32 noundef 47) #10
  br label %H5G_build_fullpath_refstr_str.exit

H5G_build_fullpath_refstr_str.exit:               ; preds = %18, %23
  %25 = tail call i32 @H5RS_acat(ptr noundef nonnull %16, ptr noundef %2) #10
  store ptr %16, ptr %1, align 8
  br label %33

26:                                               ; preds = %14
  %27 = load i64, ptr @H5E_SYM_g, align 8
  %28 = load i64, ptr @H5E_CANTCREATE_g, align 8
  %29 = tail call i32 (ptr, ptr, i32, i64, i64, ptr, ...) @H5E_printf_stack(ptr noundef nonnull @.str.1, ptr noundef nonnull @__func__.H5G__build_fullpath, i32 noundef 267, i64 noundef %27, i64 noundef %28, ptr noundef nonnull @.str.16) #10
  store ptr null, ptr %1, align 8
  %30 = load i64, ptr @H5E_SYM_g, align 8
  %31 = load i64, ptr @H5E_PATH_g, align 8
  %32 = tail call i32 (ptr, ptr, i32, i64, i64, ptr, ...) @H5E_printf_stack(ptr noundef nonnull @.str.1, ptr noundef nonnull @__func__.H5G_name_set, i32 noundef 363, i64 noundef %30, i64 noundef %31, ptr noundef nonnull @.str.3) #10
  br label %55

33:                                               ; preds = %H5G_build_fullpath_refstr_str.exit, %H5G_name_free.exit
  %34 = getelementptr inbounds i8, ptr %0, i64 8
  %35 = load ptr, ptr %34, align 8
  %.not13 = icmp eq ptr %35, null
  br i1 %.not13, label %55, label %36

36:                                               ; preds = %33
  %37 = tail call ptr @H5RS_get_str(ptr noundef nonnull %35) #10
  %38 = tail call ptr @H5RS_create(ptr noundef %37) #10
  %39 = icmp eq ptr %38, null
  br i1 %39, label %48, label %40

40:                                               ; preds = %36
  %41 = tail call i64 @strlen(ptr noundef nonnull dereferenceable(1) %37) #9
  %42 = getelementptr i8, ptr %37, i64 %41
  %43 = getelementptr i8, ptr %42, i64 -1
  %44 = load i8, ptr %43, align 1
  %.not.i.i14 = icmp eq i8 %44, 47
  br i1 %.not.i.i14, label %H5G_build_fullpath_refstr_str.exit15, label %45

45:                                               ; preds = %40
  %46 = tail call i32 @H5RS_aputc(ptr noundef nonnull %38, i32 noundef 47) #10
  br label %H5G_build_fullpath_refstr_str.exit15

H5G_build_fullpath_refstr_str.exit15:             ; preds = %40, %45
  %47 = tail call i32 @H5RS_acat(ptr noundef nonnull %38, ptr noundef %2) #10
  store ptr %38, ptr %8, align 8
  br label %55

48:                                               ; preds = %36
  %49 = load i64, ptr @H5E_SYM_g, align 8
  %50 = load i64, ptr @H5E_CANTCREATE_g, align 8
  %51 = tail call i32 (ptr, ptr, i32, i64, i64, ptr, ...) @H5E_printf_stack(ptr noundef nonnull @.str.1, ptr noundef nonnull @__func__.H5G__build_fullpath, i32 noundef 267, i64 noundef %49, i64 noundef %50, ptr noundef nonnull @.str.16) #10
  store ptr null, ptr %8, align 8
  %52 = load i64, ptr @H5E_SYM_g, align 8
  %53 = load i64, ptr @H5E_PATH_g, align 8
  %54 = tail call i32 (ptr, ptr, i32, i64, i64, ptr, ...) @H5E_printf_stack(ptr noundef nonnull @.str.1, ptr noundef nonnull @__func__.H5G_name_set, i32 noundef 370, i64 noundef %52, i64 noundef %53, ptr noundef nonnull @.str.3) #10
  br label %55

55:                                               ; preds = %H5G_build_fullpath_refstr_str.exit15, %33, %48, %26
  %.0 = phi i32 [ -1, %26 ], [ -1, %48 ], [ 0, %H5G_build_fullpath_refstr_str.exit15 ], [ 0, %33 ]
  ret i32 %.0
}